	.section .text
.LNDBG_TX:
# mark_description "Intel(R) C Intel(R) 64 Compiler for applications running on Intel(R) 64, Version 19.1.1.217 Build 20200306";
# mark_description "-O0 -save-temps -masm=intel -g -o another";
	.intel_syntax noprefix
	.file "another_test_program.c"
	.text
..TXTST0:
.L_2__routine_start_test_0:
# -- Begin  test
	.text
# mark_begin;

	.globl test
# --- test()
test:
..B1.1:                         # Preds ..B1.0
                                # Execution count [0.00e+00]
	.cfi_startproc
..___tag_value_test.2:
..L3:
                                                          #7.1
..LN0:
	.file   1 "another_test_program.c"
	.loc    1  7  is_stmt 1
        push      rbp                                           #7.1
	.cfi_def_cfa_offset 16
..LN1:
        mov       rbp, rsp                                      #7.1
	.cfi_def_cfa 6, 16
	.cfi_offset 6, -16
..LN2:
        sub       rsp, 32                                       #7.1
..LN3:
	.loc    1  8  prologue_end  is_stmt 1
        mov       eax, 5                                        #8.3
..LN4:
        mov       edi, eax                                      #8.3
..___tag_value_test.8:
..LN5:
#       sleep(unsigned int)
        call      sleep                                         #8.3
..___tag_value_test.9:
..LN6:
                                # LOE rbx rbp rsp r12 r13 r14 r15 rip eax
..B1.6:                         # Preds ..B1.1
                                # Execution count [0.00e+00]
..LN7:
        mov       DWORD PTR [-32+rbp], eax                      #8.3
..LN8:
                                # LOE rbx rbp rsp r12 r13 r14 r15 rip
..B1.2:                         # Preds ..B1.6
                                # Execution count [0.00e+00]
..LN9:
	.loc    1  11  is_stmt 1
        lea       rax, QWORD PTR [-28+rbp]                      #11.3
..LN10:
        mov       DWORD PTR [rax], 1                            #11.3
..LN11:
	.loc    1  14  is_stmt 1
        lea       rax, QWORD PTR [-28+rbp]                      #14.11
..LN12:
        mov       eax, DWORD PTR [rax]                          #14.11
..LN13:
        mov       DWORD PTR [-16+rbp], eax                      #14.9
..LN14:
	.loc    1  16  is_stmt 1
        mov       eax, 10                                       #16.3
..LN15:
        mov       edi, eax                                      #16.3
..___tag_value_test.10:
..LN16:
#       sleep(unsigned int)
        call      sleep                                         #16.3
..___tag_value_test.11:
..LN17:
                                # LOE rbx rbp rsp r12 r13 r14 r15 rip eax
..B1.7:                         # Preds ..B1.2
                                # Execution count [0.00e+00]
..LN18:
        mov       DWORD PTR [-12+rbp], eax                      #16.3
..LN19:
                                # LOE rbx rbp rsp r12 r13 r14 r15 rip
..B1.3:                         # Preds ..B1.7
                                # Execution count [0.00e+00]
..LN20:
	.loc    1  18  epilogue_begin  is_stmt 1
        leave                                                   #18.1
	.cfi_restore 6
..LN21:
        ret                                                     #18.1
..LN22:
                                # LOE
..LN23:
	.cfi_endproc
# mark_end;
	.type	test,@function
	.size	test,.-test
..LNtest.24:
.LNtest:
	.data
# -- End  test
	.text
.L_2__routine_start_main_1:
# -- Begin  main
	.text
# mark_begin;

	.globl main
# --- main()
main:
..B2.1:                         # Preds ..B2.0
                                # Execution count [0.00e+00]
	.cfi_startproc
..___tag_value_main.17:
..L18:
                                                         #21.1
..LN25:
	.loc    1  21  is_stmt 1
        push      rbp                                           #21.1
	.cfi_def_cfa_offset 16
..LN26:
        mov       rbp, rsp                                      #21.1
	.cfi_def_cfa 6, 16
	.cfi_offset 6, -16
..LN27:
        sub       rsp, 48                                       #21.1
..LN28:
	.loc    1  23  prologue_end  is_stmt 1
        mov       DWORD PTR [-48+rbp], 3                        #23.9
..LN29:
	.loc    1  25  is_stmt 1
        lea       rax, QWORD PTR [-48+rbp]                      #25.16
..LN30:
        mov       QWORD PTR [-32+rbp], rax                      #25.13
..LN31:
	.loc    1  27  is_stmt 1
        mov       eax, 0                                        #27.3
..___tag_value_main.23:
..LN32:
#       test()
        call      test                                          #27.3
..___tag_value_main.24:
..LN33:
                                # LOE rbx rbp rsp r12 r13 r14 r15 rip
..B2.2:                         # Preds ..B2.1
                                # Execution count [0.00e+00]
..LN34:
	.loc    1  30  is_stmt 1
        mov       eax, 24                                       #30.16
..LN35:
        mov       rdi, rax                                      #30.16
..___tag_value_main.25:
..LN36:
#       malloc(size_t)
        call      malloc                                        #30.16
..___tag_value_main.26:
..LN37:
                                # LOE rax rbx rbp rsp r12 r13 r14 r15 rip
..B2.7:                         # Preds ..B2.2
                                # Execution count [0.00e+00]
..LN38:
        mov       QWORD PTR [-24+rbp], rax                      #30.16
..LN39:
                                # LOE rbx rbp rsp r12 r13 r14 r15 rip
..B2.3:                         # Preds ..B2.7
                                # Execution count [0.00e+00]
..LN40:
        mov       rax, QWORD PTR [-24+rbp]                      #30.16
..LN41:
        mov       QWORD PTR [-16+rbp], rax                      #30.14
..LN42:
	.loc    1  32  is_stmt 1
        mov       rax, QWORD PTR [-16+rbp]                      #32.4
..LN43:
        mov       DWORD PTR [rax], 3                            #32.4
..LN44:
	.loc    1  33  is_stmt 1
        mov       eax, 4                                        #33.5
..LN45:
        add       rax, QWORD PTR [-16+rbp]                      #33.5
..LN46:
        mov       DWORD PTR [rax], 4                            #33.5
..LN47:
	.loc    1  35  is_stmt 1
        mov       eax, 4                                        #35.18
..LN48:
        add       rax, QWORD PTR [-16+rbp]                      #35.18
..LN49:
        mov       eax, DWORD PTR [rax]                          #35.18
..LN50:
        mov       DWORD PTR [-44+rbp], eax                      #35.14
..LN51:
	.loc    1  36  is_stmt 1
        mov       eax, 4                                        #36.17
..LN52:
        add       rax, QWORD PTR [-16+rbp]                      #36.17
..LN53:
        mov       eax, DWORD PTR [rax]                          #36.17
..LN54:
        mov       DWORD PTR [-40+rbp], eax                      #36.15
..LN55:
	.loc    1  39  is_stmt 1
        mov       eax, DWORD PTR [-40+rbp]                      #39.7
..LN56:
        mov       DWORD PTR [-48+rbp], eax                      #39.3
..LN57:
	.loc    1  40  is_stmt 1
        mov       rax, QWORD PTR [-16+rbp]                      #40.3
..LN58:
        mov       rdi, rax                                      #40.3
..___tag_value_main.27:
..LN59:
#       free(void *)
        call      free                                          #40.3
..___tag_value_main.28:
..LN60:
                                # LOE rbx rbp rsp r12 r13 r14 r15 rip
..B2.4:                         # Preds ..B2.3
                                # Execution count [0.00e+00]
..LN61:
	.loc    1  41  is_stmt 1
        mov       eax, 0                                        #41.10
..LN62:
	.loc    1  41  epilogue_begin  is_stmt 1
        leave                                                   #41.10
	.cfi_restore 6
..LN63:
        ret                                                     #41.10
..LN64:
                                # LOE
..LN65:
	.cfi_endproc
# mark_end;
	.type	main,@function
	.size	main,.-main
..LNmain.66:
.LNmain:
	.data
# -- End  main
	.data
	.section .note.GNU-stack, ""
// -- Begin DWARF2 SEGMENT .debug_info
	.section .debug_frame
.debug_frame_seg:
	.align 1
// -- Begin DWARF2 SEGMENT .debug_str
	.section .eh_frame,"a",@progbits
.eh_frame_seg:
	.align 8
	.section .text
.LNDBG_TXe:
# End
